target datalayout = "e-m:e-p270:32:32-p271:32:32-p272:64:64-i64:64-i128:128-f80:128-n8:16:32:64-S128"
target triple = "x86_64-pc-linux-gnu"

%struct.mbedtls_ctr_drbg_context = type { [16 x i8], i32, i32, i64, i32, %struct.mbedtls_aes_context, ptr, ptr }
%struct.mbedtls_aes_context = type { i32, i64, [68 x i32] }

; Function Attrs: alwaysinline nounwind uwtable
define internal void @mbedtls_put_unaligned_uint64(ptr noundef %0, i64 noundef %1) #8 {
  %3 = alloca ptr, align 8
  %4 = alloca i64, align 8
  store ptr %0, ptr %3, align 8, !tbaa !29
  store i64 %1, ptr %4, align 8, !tbaa !16
  %5 = load ptr, ptr %3, align 8, !tbaa !29
  call void @llvm.memcpy.p0.p0.i64(ptr align 1 %5, ptr align 8 %4, i64 8, i1 false)
  ret void
}

; Function Attrs: alwaysinline nounwind uwtable
define internal i64 @mbedtls_get_unaligned_uint64(ptr noundef %0) #8 {
  %2 = alloca ptr, align 8
  %3 = alloca i64, align 8
  store ptr %0, ptr %2, align 8, !tbaa !29
  call void @llvm.lifetime.start.p0(i64 8, ptr %3) #10
  %4 = load ptr, ptr %2, align 8, !tbaa !29
  call void @llvm.memcpy.p0.p0.i64(ptr align 8 %3, ptr align 1 %4, i64 8, i1 false)
  %5 = load i64, ptr %3, align 8, !tbaa !16
  call void @llvm.lifetime.end.p0(i64 8, ptr %3) #10
  ret i64 %5
}

; Function Attrs: alwaysinline nounwind uwtable
define internal void @mbedtls_put_unaligned_uint32(ptr noundef %0, i32 noundef %1) #8 {
  %3 = alloca ptr, align 8
  %4 = alloca i32, align 4
  store ptr %0, ptr %3, align 8, !tbaa !29
  store i32 %1, ptr %4, align 4, !tbaa !14
  %5 = load ptr, ptr %3, align 8, !tbaa !29
  call void @llvm.memcpy.p0.p0.i64(ptr align 1 %5, ptr align 4 %4, i64 4, i1 false)
  ret void
}

; Function Attrs: alwaysinline nounwind uwtable
define internal i32 @mbedtls_get_unaligned_uint32(ptr noundef %0) #8 {
  %2 = alloca ptr, align 8
  %3 = alloca i32, align 4
  store ptr %0, ptr %2, align 8, !tbaa !29
  call void @llvm.lifetime.start.p0(i64 4, ptr %3) #10
  %4 = load ptr, ptr %2, align 8, !tbaa !29
  call void @llvm.memcpy.p0.p0.i64(ptr align 4 %3, ptr align 1 %4, i64 4, i1 false)
  %5 = load i32, ptr %3, align 4, !tbaa !14
  call void @llvm.lifetime.end.p0(i64 4, ptr %3) #10
  ret i32 %5
}

; Function Attrs: alwaysinline nounwind uwtable
define internal void @mbedtls_xor(ptr noundef %0, ptr noundef %1, ptr noundef %2, i64 noundef %3) #8 {
  %5 = alloca ptr, align 8
  %6 = alloca ptr, align 8
  %7 = alloca ptr, align 8
  %8 = alloca i64, align 8
  %9 = alloca i64, align 8
  %10 = alloca i64, align 8
  store ptr %0, ptr %5, align 8, !tbaa !19
  store ptr %1, ptr %6, align 8, !tbaa !19
  store ptr %2, ptr %7, align 8, !tbaa !19
  store i64 %3, ptr %8, align 8, !tbaa !16
  call void @llvm.lifetime.start.p0(i64 8, ptr %9) #10
  store i64 0, ptr %9, align 8, !tbaa !16
  br label %11

11:                                               ; preds = %30, %4
  %12 = load i64, ptr %9, align 8, !tbaa !16
  %13 = add i64 %12, 8
  %14 = load i64, ptr %8, align 8, !tbaa !16
  %15 = icmp ule i64 %13, %14
  br i1 %15, label %16, label %33

16:                                               ; preds = %11
  call void @llvm.lifetime.start.p0(i64 8, ptr %10) #10
  %17 = load ptr, ptr %6, align 8, !tbaa !19
  %18 = load i64, ptr %9, align 8, !tbaa !16
  %19 = getelementptr inbounds nuw i8, ptr %17, i64 %18
  %20 = call i64 @mbedtls_get_unaligned_uint64(ptr noundef %19)
  %21 = load ptr, ptr %7, align 8, !tbaa !19
  %22 = load i64, ptr %9, align 8, !tbaa !16
  %23 = getelementptr inbounds nuw i8, ptr %21, i64 %22
  %24 = call i64 @mbedtls_get_unaligned_uint64(ptr noundef %23)
  %25 = xor i64 %20, %24
  store i64 %25, ptr %10, align 8, !tbaa !16
  %26 = load ptr, ptr %5, align 8, !tbaa !19
  %27 = load i64, ptr %9, align 8, !tbaa !16
  %28 = getelementptr inbounds nuw i8, ptr %26, i64 %27
  %29 = load i64, ptr %10, align 8, !tbaa !16
  call void @mbedtls_put_unaligned_uint64(ptr noundef %28, i64 noundef %29)
  call void @llvm.lifetime.end.p0(i64 8, ptr %10) #10
  br label %30

30:                                               ; preds = %16
  %31 = load i64, ptr %9, align 8, !tbaa !16
  %32 = add i64 %31, 8
  store i64 %32, ptr %9, align 8, !tbaa !16
  br label %11, !llvm.loop !33

33:                                               ; preds = %11
  br label %34

34:                                               ; preds = %54, %33
  %35 = load i64, ptr %9, align 8, !tbaa !16
  %36 = load i64, ptr %8, align 8, !tbaa !16
  %37 = icmp ult i64 %35, %36
  br i1 %37, label %38, label %57

38:                                               ; preds = %34
  %39 = load ptr, ptr %6, align 8, !tbaa !19
  %40 = load i64, ptr %9, align 8, !tbaa !16
  %41 = getelementptr inbounds nuw i8, ptr %39, i64 %40
  %42 = load i8, ptr %41, align 1, !tbaa !21
  %43 = zext i8 %42 to i32
  %44 = load ptr, ptr %7, align 8, !tbaa !19
  %45 = load i64, ptr %9, align 8, !tbaa !16
  %46 = getelementptr inbounds nuw i8, ptr %44, i64 %45
  %47 = load i8, ptr %46, align 1, !tbaa !21
  %48 = zext i8 %47 to i32
  %49 = xor i32 %43, %48
  %50 = trunc i32 %49 to i8
  %51 = load ptr, ptr %5, align 8, !tbaa !19
  %52 = load i64, ptr %9, align 8, !tbaa !16
  %53 = getelementptr inbounds nuw i8, ptr %51, i64 %52
  store i8 %50, ptr %53, align 1, !tbaa !21
  br label %54

54:                                               ; preds = %38
  %55 = load i64, ptr %9, align 8, !tbaa !16
  %56 = add i64 %55, 1
  store i64 %56, ptr %9, align 8, !tbaa !16
  br label %34, !llvm.loop !34

57:                                               ; preds = %34
  call void @llvm.lifetime.end.p0(i64 8, ptr %9) #10
  ret void
}

; Function Attrs: inlinehint nounwind uwtable
define internal void @mbedtls_ctr_increment_counter(ptr noundef %0) #4 {
  %2 = alloca ptr, align 8
  %3 = alloca i32, align 4
  %4 = alloca i32, align 4
  %5 = alloca i32, align 4
  store ptr %0, ptr %2, align 8, !tbaa !19
  call void @llvm.lifetime.start.p0(i64 4, ptr %3) #10
  store i32 3, ptr %3, align 4, !tbaa !14
  br label %6

6:                                                ; preds = %33, %1
  call void @llvm.lifetime.start.p0(i64 4, ptr %4) #10
  %7 = load ptr, ptr %2, align 8, !tbaa !19
  %8 = load i32, ptr %3, align 4, !tbaa !14
  %9 = shl i32 %8, 2
  %10 = sext i32 %9 to i64
  %11 = getelementptr inbounds i8, ptr %7, i64 %10
  %12 = call i32 @mbedtls_get_unaligned_uint32(ptr noundef %11)
  %13 = call i32 @llvm.bswap.i32(i32 %12)
  store i32 %13, ptr %4, align 4, !tbaa !14
  %14 = load i32, ptr %4, align 4, !tbaa !14
  %15 = add i32 %14, 1
  store i32 %15, ptr %4, align 4, !tbaa !14
  %16 = load ptr, ptr %2, align 8, !tbaa !19
  %17 = load i32, ptr %3, align 4, !tbaa !14
  %18 = shl i32 %17, 2
  %19 = sext i32 %18 to i64
  %20 = getelementptr inbounds i8, ptr %16, i64 %19
  %21 = load i32, ptr %4, align 4, !tbaa !14
  %22 = call i32 @llvm.bswap.i32(i32 %21)
  call void @mbedtls_put_unaligned_uint32(ptr noundef %20, i32 noundef %22)
  %23 = load i32, ptr %4, align 4, !tbaa !14
  %24 = icmp ne i32 %23, 0
  br i1 %24, label %28, label %25

25:                                               ; preds = %6
  %26 = load i32, ptr %3, align 4, !tbaa !14
  %27 = icmp eq i32 %26, 0
  br i1 %27, label %28, label %29

28:                                               ; preds = %25, %6
  store i32 2, ptr %5, align 4
  br label %30

29:                                               ; preds = %25
  store i32 0, ptr %5, align 4
  br label %30

30:                                               ; preds = %29, %28
  call void @llvm.lifetime.end.p0(i64 4, ptr %4) #10
  %31 = load i32, ptr %5, align 4
  switch i32 %31, label %36 [
    i32 0, label %32
  ]

32:                                               ; preds = %30
  br label %33

33:                                               ; preds = %32
  %34 = load i32, ptr %3, align 4, !tbaa !14
  %35 = add nsw i32 %34, -1
  store i32 %35, ptr %3, align 4, !tbaa !14
  br label %6

36:                                               ; preds = %30
  call void @llvm.lifetime.end.p0(i64 4, ptr %3) #10
  br label %37

37:                                               ; preds = %36
  ret void
}

; Function Attrs: nounwind uwtable
define internal i32 @ctr_drbg_update_internal(ptr noundef %0, ptr noundef %1) #0 {
  %3 = alloca ptr, align 8
  %4 = alloca ptr, align 8
  %5 = alloca [48 x i8], align 16
  %6 = alloca ptr, align 8
  %7 = alloca i32, align 4
  %8 = alloca i32, align 4
  store ptr %0, ptr %3, align 8, !tbaa !3
  store ptr %1, ptr %4, align 8, !tbaa !19
  call void @llvm.lifetime.start.p0(i64 48, ptr %5) #10
  call void @llvm.lifetime.start.p0(i64 8, ptr %6) #10
  %9 = getelementptr inbounds [48 x i8], ptr %5, i64 0, i64 0
  store ptr %9, ptr %6, align 8, !tbaa !19
  call void @llvm.lifetime.start.p0(i64 4, ptr %7) #10
  call void @llvm.lifetime.start.p0(i64 4, ptr %8) #10
  store i32 0, ptr %8, align 4, !tbaa !14
  %10 = getelementptr inbounds [48 x i8], ptr %5, i64 0, i64 0
  call void @llvm.memset.p0.i64(ptr align 16 %10, i8 0, i64 48, i1 false)
  store i32 0, ptr %7, align 4, !tbaa !14
  br label %11

11:                                               ; preds = %30, %2
  %12 = load i32, ptr %7, align 4, !tbaa !14
  %13 = icmp slt i32 %12, 48
  br i1 %13, label %14, label %33

14:                                               ; preds = %11
  %15 = load ptr, ptr %3, align 8, !tbaa !3
  %16 = getelementptr inbounds nuw %struct.mbedtls_ctr_drbg_context, ptr %15, i32 0, i32 0
  %17 = getelementptr inbounds [16 x i8], ptr %16, i64 0, i64 0
  call void @mbedtls_ctr_increment_counter(ptr noundef %17)
  %18 = load ptr, ptr %3, align 8, !tbaa !3
  %19 = getelementptr inbounds nuw %struct.mbedtls_ctr_drbg_context, ptr %18, i32 0, i32 5
  %20 = load ptr, ptr %3, align 8, !tbaa !3
  %21 = getelementptr inbounds nuw %struct.mbedtls_ctr_drbg_context, ptr %20, i32 0, i32 0
  %22 = getelementptr inbounds [16 x i8], ptr %21, i64 0, i64 0
  %23 = load ptr, ptr %6, align 8, !tbaa !19
  %24 = call i32 @mbedtls_aes_crypt_ecb(ptr noundef %19, i32 noundef 1, ptr noundef %22, ptr noundef %23)
  store i32 %24, ptr %8, align 4, !tbaa !14
  %25 = icmp ne i32 %24, 0
  br i1 %25, label %26, label %27

26:                                               ; preds = %14
  br label %49

27:                                               ; preds = %14
  %28 = load ptr, ptr %6, align 8, !tbaa !19
  %29 = getelementptr inbounds i8, ptr %28, i64 16
  store ptr %29, ptr %6, align 8, !tbaa !19
  br label %30

30:                                               ; preds = %27
  %31 = load i32, ptr %7, align 4, !tbaa !14
  %32 = add nsw i32 %31, 16
  store i32 %32, ptr %7, align 4, !tbaa !14
  br label %11, !llvm.loop !27

33:                                               ; preds = %11
  %34 = getelementptr inbounds [48 x i8], ptr %5, i64 0, i64 0
  %35 = getelementptr inbounds [48 x i8], ptr %5, i64 0, i64 0
  %36 = load ptr, ptr %4, align 8, !tbaa !19
  call void @mbedtls_xor(ptr noundef %34, ptr noundef %35, ptr noundef %36, i64 noundef 48)
  %37 = load ptr, ptr %3, align 8, !tbaa !3
  %38 = getelementptr inbounds nuw %struct.mbedtls_ctr_drbg_context, ptr %37, i32 0, i32 5
  %39 = getelementptr inbounds [48 x i8], ptr %5, i64 0, i64 0
  %40 = call i32 @mbedtls_aes_setkey_enc(ptr noundef %38, ptr noundef %39, i32 noundef 256)
  store i32 %40, ptr %8, align 4, !tbaa !14
  %41 = icmp ne i32 %40, 0
  br i1 %41, label %42, label %43

42:                                               ; preds = %33
  br label %49

43:                                               ; preds = %33
  %44 = load ptr, ptr %3, align 8, !tbaa !3
  %45 = getelementptr inbounds nuw %struct.mbedtls_ctr_drbg_context, ptr %44, i32 0, i32 0
  %46 = getelementptr inbounds [16 x i8], ptr %45, i64 0, i64 0
  %47 = getelementptr inbounds [48 x i8], ptr %5, i64 0, i64 0
  %48 = getelementptr inbounds i8, ptr %47, i64 32
  call void @llvm.memcpy.p0.p0.i64(ptr align 8 %46, ptr align 1 %48, i64 16, i1 false)
  br label %49

49:                                               ; preds = %43, %42, %26
  %50 = getelementptr inbounds [48 x i8], ptr %5, i64 0, i64 0
  call void @mbedtls_platform_zeroize(ptr noundef %50, i64 noundef 48)
  %51 = load i32, ptr %8, align 4, !tbaa !14
  call void @llvm.lifetime.end.p0(i64 4, ptr %8) #10
  call void @llvm.lifetime.end.p0(i64 4, ptr %7) #10
  call void @llvm.lifetime.end.p0(i64 8, ptr %6) #10
  call void @llvm.lifetime.end.p0(i64 48, ptr %5) #10
  ret i32 %51
}

; Function Attrs: nounwind uwtable
define internal i32 @mbedtls_ctr_drbg_reseed_internal(ptr noundef %0, ptr noundef %1, i64 noundef %2, i64 noundef %3) #0 {
  %5 = alloca i32, align 4
  %6 = alloca ptr, align 8
  %7 = alloca ptr, align 8
  %8 = alloca i64, align 8
  %9 = alloca i64, align 8
  %10 = alloca [384 x i8], align 16
  %11 = alloca i64, align 8
  %12 = alloca i32, align 4
  %13 = alloca i32, align 4
  store ptr %0, ptr %6, align 8, !tbaa !3
  store ptr %1, ptr %7, align 8, !tbaa !19
  store i64 %2, ptr %8, align 8, !tbaa !16
  store i64 %3, ptr %9, align 8, !tbaa !16
  call void @llvm.lifetime.start.p0(i64 384, ptr %10) #10
  call void @llvm.lifetime.start.p0(i64 8, ptr %11) #10
  store i64 0, ptr %11, align 8, !tbaa !16
  call void @llvm.lifetime.start.p0(i64 4, ptr %12) #10
  store i32 -110, ptr %12, align 4, !tbaa !14
  %14 = load ptr, ptr %6, align 8, !tbaa !3
  %15 = getelementptr inbounds nuw %struct.mbedtls_ctr_drbg_context, ptr %14, i32 0, i32 3
  %16 = load i64, ptr %15, align 8, !tbaa !17
  %17 = icmp ugt i64 %16, 384
  br i1 %17, label %18, label %19

18:                                               ; preds = %4
  store i32 -56, ptr %5, align 4
  store i32 1, ptr %13, align 4
  br label %112

19:                                               ; preds = %4
  %20 = load i64, ptr %9, align 8, !tbaa !16
  %21 = load ptr, ptr %6, align 8, !tbaa !3
  %22 = getelementptr inbounds nuw %struct.mbedtls_ctr_drbg_context, ptr %21, i32 0, i32 3
  %23 = load i64, ptr %22, align 8, !tbaa !17
  %24 = sub i64 384, %23
  %25 = icmp ugt i64 %20, %24
  br i1 %25, label %26, label %27

26:                                               ; preds = %19
  store i32 -56, ptr %5, align 4
  store i32 1, ptr %13, align 4
  br label %112

27:                                               ; preds = %19
  %28 = load i64, ptr %8, align 8, !tbaa !16
  %29 = load ptr, ptr %6, align 8, !tbaa !3
  %30 = getelementptr inbounds nuw %struct.mbedtls_ctr_drbg_context, ptr %29, i32 0, i32 3
  %31 = load i64, ptr %30, align 8, !tbaa !17
  %32 = sub i64 384, %31
  %33 = load i64, ptr %9, align 8, !tbaa !16
  %34 = sub i64 %32, %33
  %35 = icmp ugt i64 %28, %34
  br i1 %35, label %36, label %37

36:                                               ; preds = %27
  store i32 -56, ptr %5, align 4
  store i32 1, ptr %13, align 4
  br label %112

37:                                               ; preds = %27
  %38 = getelementptr inbounds [384 x i8], ptr %10, i64 0, i64 0
  call void @llvm.memset.p0.i64(ptr align 16 %38, i8 0, i64 384, i1 false)
  %39 = load ptr, ptr %6, align 8, !tbaa !3
  %40 = getelementptr inbounds nuw %struct.mbedtls_ctr_drbg_context, ptr %39, i32 0, i32 6
  %41 = load ptr, ptr %40, align 8, !tbaa !18
  %42 = load ptr, ptr %6, align 8, !tbaa !3
  %43 = getelementptr inbounds nuw %struct.mbedtls_ctr_drbg_context, ptr %42, i32 0, i32 7
  %44 = load ptr, ptr %43, align 8, !tbaa !28
  %45 = getelementptr inbounds [384 x i8], ptr %10, i64 0, i64 0
  %46 = load ptr, ptr %6, align 8, !tbaa !3
  %47 = getelementptr inbounds nuw %struct.mbedtls_ctr_drbg_context, ptr %46, i32 0, i32 3
  %48 = load i64, ptr %47, align 8, !tbaa !17
  %49 = call i32 %41(ptr noundef %44, ptr noundef %45, i64 noundef %48)
  %50 = icmp ne i32 0, %49
  br i1 %50, label %51, label %52

51:                                               ; preds = %37
  store i32 -52, ptr %5, align 4
  store i32 1, ptr %13, align 4
  br label %112

52:                                               ; preds = %37
  %53 = load ptr, ptr %6, align 8, !tbaa !3
  %54 = getelementptr inbounds nuw %struct.mbedtls_ctr_drbg_context, ptr %53, i32 0, i32 3
  %55 = load i64, ptr %54, align 8, !tbaa !17
  %56 = load i64, ptr %11, align 8, !tbaa !16
  %57 = add i64 %56, %55
  store i64 %57, ptr %11, align 8, !tbaa !16
  %58 = load i64, ptr %9, align 8, !tbaa !16
  %59 = icmp ne i64 %58, 0
  br i1 %59, label %60, label %78

60:                                               ; preds = %52
  %61 = load ptr, ptr %6, align 8, !tbaa !3
  %62 = getelementptr inbounds nuw %struct.mbedtls_ctr_drbg_context, ptr %61, i32 0, i32 6
  %63 = load ptr, ptr %62, align 8, !tbaa !18
  %64 = load ptr, ptr %6, align 8, !tbaa !3
  %65 = getelementptr inbounds nuw %struct.mbedtls_ctr_drbg_context, ptr %64, i32 0, i32 7
  %66 = load ptr, ptr %65, align 8, !tbaa !28
  %67 = getelementptr inbounds [384 x i8], ptr %10, i64 0, i64 0
  %68 = load i64, ptr %11, align 8, !tbaa !16
  %69 = getelementptr inbounds nuw i8, ptr %67, i64 %68
  %70 = load i64, ptr %9, align 8, !tbaa !16
  %71 = call i32 %63(ptr noundef %66, ptr noundef %69, i64 noundef %70)
  %72 = icmp ne i32 0, %71
  br i1 %72, label %73, label %74

73:                                               ; preds = %60
  store i32 -52, ptr %5, align 4
  store i32 1, ptr %13, align 4
  br label %112

74:                                               ; preds = %60
  %75 = load i64, ptr %9, align 8, !tbaa !16
  %76 = load i64, ptr %11, align 8, !tbaa !16
  %77 = add i64 %76, %75
  store i64 %77, ptr %11, align 8, !tbaa !16
  br label %78

78:                                               ; preds = %74, %52
  %79 = load ptr, ptr %7, align 8, !tbaa !19
  %80 = icmp ne ptr %79, null
  br i1 %80, label %81, label %93

81:                                               ; preds = %78
  %82 = load i64, ptr %8, align 8, !tbaa !16
  %83 = icmp ne i64 %82, 0
  br i1 %83, label %84, label %93

84:                                               ; preds = %81
  %85 = getelementptr inbounds [384 x i8], ptr %10, i64 0, i64 0
  %86 = load i64, ptr %11, align 8, !tbaa !16
  %87 = getelementptr inbounds nuw i8, ptr %85, i64 %86
  %88 = load ptr, ptr %7, align 8, !tbaa !19
  %89 = load i64, ptr %8, align 8, !tbaa !16
  call void @llvm.memcpy.p0.p0.i64(ptr align 1 %87, ptr align 1 %88, i64 %89, i1 false)
  %90 = load i64, ptr %8, align 8, !tbaa !16
  %91 = load i64, ptr %11, align 8, !tbaa !16
  %92 = add i64 %91, %90
  store i64 %92, ptr %11, align 8, !tbaa !16
  br label %93

93:                                               ; preds = %84, %81, %78
  %94 = getelementptr inbounds [384 x i8], ptr %10, i64 0, i64 0
  %95 = getelementptr inbounds [384 x i8], ptr %10, i64 0, i64 0
  %96 = load i64, ptr %11, align 8, !tbaa !16
  %97 = call i32 @block_cipher_df(ptr noundef %94, ptr noundef %95, i64 noundef %96)
  store i32 %97, ptr %12, align 4, !tbaa !14
  %98 = icmp ne i32 %97, 0
  br i1 %98, label %99, label %100

99:                                               ; preds = %93
  br label %109

100:                                              ; preds = %93
  %101 = load ptr, ptr %6, align 8, !tbaa !3
  %102 = getelementptr inbounds [384 x i8], ptr %10, i64 0, i64 0
  %103 = call i32 @ctr_drbg_update_internal(ptr noundef %101, ptr noundef %102)
  store i32 %103, ptr %12, align 4, !tbaa !14
  %104 = icmp ne i32 %103, 0
  br i1 %104, label %105, label %106

105:                                              ; preds = %100
  br label %109

106:                                              ; preds = %100
  %107 = load ptr, ptr %6, align 8, !tbaa !3
  %108 = getelementptr inbounds nuw %struct.mbedtls_ctr_drbg_context, ptr %107, i32 0, i32 1
  store i32 1, ptr %108, align 8, !tbaa !8
  br label %109

109:                                              ; preds = %106, %105, %99
  %110 = getelementptr inbounds [384 x i8], ptr %10, i64 0, i64 0
  call void @mbedtls_platform_zeroize(ptr noundef %110, i64 noundef 384)
  %111 = load i32, ptr %12, align 4, !tbaa !14
  store i32 %111, ptr %5, align 4
  store i32 1, ptr %13, align 4
  br label %112

112:                                              ; preds = %109, %73, %51, %36, %26, %18
  call void @llvm.lifetime.end.p0(i64 4, ptr %12) #10
  call void @llvm.lifetime.end.p0(i64 8, ptr %11) #10
  call void @llvm.lifetime.end.p0(i64 384, ptr %10) #10
  %113 = load i32, ptr %5, align 4
  ret i32 %113
}