; Function Attrs: nounwind uwtable
define internal fastcc i32 @mbedtls_ctr_drbg_reseed_internal(ptr noundef %0, ptr noundef readonly %1, i64 noundef %2, i64 noundef range(i64 0, 2147483648) %3) unnamed_addr #0 {
  %5 = alloca [48 x i8], align 16
  %6 = alloca [384 x i8], align 16
  call void @llvm.lifetime.start.p0(i64 384, ptr nonnull %6) #14
  %7 = getelementptr inbounds nuw i8, ptr %0, i64 24
  %8 = load i64, ptr %7, align 8, !tbaa !13
  %9 = icmp ugt i64 %8, 384
  br i1 %9, label %62, label %10

10:                                               ; preds = %4
  %11 = sub nuw nsw i64 384, %8
  %12 = icmp samesign ugt i64 %3, %11
  %13 = sub nuw nsw i64 %11, %3
  %14 = icmp ugt i64 %2, %13
  %or.cond45 = select i1 %12, i1 true, i1 %14
  br i1 %or.cond45, label %62, label %15

15:                                               ; preds = %10
  call void @llvm.memset.p0.i64(ptr noundef nonnull align 16 dereferenceable(384) %6, i8 0, i64 384, i1 false)
  %16 = getelementptr inbounds nuw i8, ptr %0, i64 328
  %17 = load ptr, ptr %16, align 8, !tbaa !14
  %18 = getelementptr inbounds nuw i8, ptr %0, i64 336
  %19 = load ptr, ptr %18, align 8, !tbaa !23
  %20 = call i32 %17(ptr noundef %19, ptr noundef nonnull %6, i64 noundef %8) #14
  %.not = icmp eq i32 %20, 0
  br i1 %.not, label %21, label %62

21:                                               ; preds = %15
  %22 = load i64, ptr %7, align 8, !tbaa !13
  %.not40 = icmp eq i64 %3, 0
  br i1 %.not40, label %30, label %23

23:                                               ; preds = %21
  %24 = load ptr, ptr %16, align 8, !tbaa !14
  %25 = load ptr, ptr %18, align 8, !tbaa !23
  %26 = getelementptr inbounds nuw i8, ptr %6, i64 %22
  %27 = call i32 %24(ptr noundef %25, ptr noundef nonnull %26, i64 noundef %3) #14
  %.not41 = icmp eq i32 %27, 0
  br i1 %.not41, label %28, label %62

28:                                               ; preds = %23
  %29 = add i64 %22, %3
  br label %30

30:                                               ; preds = %28, %21
  %.030 = phi i64 [ %29, %28 ], [ %22, %21 ]
  %31 = icmp ne ptr %1, null
  %32 = icmp ne i64 %2, 0
  %or.cond = and i1 %31, %32
  br i1 %or.cond, label %33, label %36

33:                                               ; preds = %30
  %34 = getelementptr inbounds nuw i8, ptr %6, i64 %.030
  call void @llvm.memcpy.p0.p0.i64(ptr nonnull align 1 %34, ptr nonnull align 1 %1, i64 %2, i1 false)
  %35 = add i64 %.030, %2
  br label %36

36:                                               ; preds = %33, %30
  %.1 = phi i64 [ %35, %33 ], [ %.030, %30 ]
  %37 = call fastcc i32 @block_cipher_df(ptr noundef %6, ptr noundef nonnull %6, i64 noundef %.1)
  %.not42 = icmp eq i32 %37, 0
  br i1 %.not42, label %38, label %61

38:                                               ; preds = %36
  call void @llvm.lifetime.start.p0(i64 48, ptr nonnull %5) #14
  call void @llvm.memset.p0.i64(ptr noundef nonnull align 16 dereferenceable(48) %5, i8 0, i64 48, i1 false)
  %39 = getelementptr inbounds nuw i8, ptr %0, i64 40
  br label %.preheader17.i

.preheader17.i:                                   ; preds = %49, %38
  %.01019.i = phi i32 [ 0, %38 ], [ %51, %49 ]
  %.01118.i = phi ptr [ %5, %38 ], [ %50, %49 ]
  br label %40

40:                                               ; preds = %40, %.preheader17.i
  %indvars.iv.i.i = phi i64 [ %indvars.iv.next.i.i, %40 ], [ 3, %.preheader17.i ]
  %41 = shl i64 %indvars.iv.i.i, 2
  %42 = getelementptr inbounds i8, ptr %0, i64 %41
  %.0.copyload.i.i.i = load i32, ptr %42, align 1
  %43 = call i32 @llvm.bswap.i32(i32 %.0.copyload.i.i.i)
  %44 = add i32 %43, 1
  %45 = call i32 @llvm.bswap.i32(i32 %44)
  store i32 %45, ptr %42, align 1
  %46 = icmp eq i32 %44, 0
  %47 = icmp ne i64 %indvars.iv.i.i, 0
  %or.cond.not.i.i = and i1 %47, %46
  %indvars.iv.next.i.i = add nsw i64 %indvars.iv.i.i, -1
  br i1 %or.cond.not.i.i, label %40, label %mbedtls_ctr_increment_counter.exit.i

mbedtls_ctr_increment_counter.exit.i:             ; preds = %40
  %48 = call i32 @mbedtls_aes_crypt_ecb(ptr noundef nonnull %39, i32 noundef 1, ptr noundef nonnull %0, ptr noundef nonnull %.01118.i) #14
  %.not14.i = icmp eq i32 %48, 0
  br i1 %.not14.i, label %49, label %ctr_drbg_update_internal.exit.thread

49:                                               ; preds = %mbedtls_ctr_increment_counter.exit.i
  %50 = getelementptr inbounds nuw i8, ptr %.01118.i, i64 16
  %51 = add nuw nsw i32 %.01019.i, 16
  %52 = icmp samesign ult i32 %.01019.i, 32
  br i1 %52, label %.preheader17.i, label %.preheader16.i, !llvm.loop !15

.preheader16.i:                                   ; preds = %49, %.preheader16.i
  %.0.i20.i = phi i64 [ %53, %.preheader16.i ], [ 0, %49 ]
  %53 = add nuw nsw i64 %.0.i20.i, 8
  %54 = getelementptr inbounds nuw i8, ptr %5, i64 %.0.i20.i
  %.0.copyload.i15.i = load i64, ptr %54, align 8
  %55 = getelementptr inbounds nuw i8, ptr %6, i64 %.0.i20.i
  %.0.copyload.i.i = load i64, ptr %55, align 8
  %56 = xor i64 %.0.copyload.i.i, %.0.copyload.i15.i
  store i64 %56, ptr %54, align 8
  %.not.i.i = icmp samesign ugt i64 %.0.i20.i, 32
  br i1 %.not.i.i, label %mbedtls_xor.exit.i, label %.preheader16.i, !llvm.loop !17

mbedtls_xor.exit.i:                               ; preds = %.preheader16.i
  %57 = call i32 @mbedtls_aes_setkey_enc(ptr noundef nonnull %39, ptr noundef nonnull %5, i32 noundef 256) #14
  %.not.i = icmp eq i32 %57, 0
  br i1 %.not.i, label %58, label %ctr_drbg_update_internal.exit.thread

ctr_drbg_update_internal.exit.thread:             ; preds = %mbedtls_ctr_increment_counter.exit.i, %mbedtls_xor.exit.i
  %.0.i.ph = phi i32 [ %57, %mbedtls_xor.exit.i ], [ %48, %mbedtls_ctr_increment_counter.exit.i ]
  call void @mbedtls_platform_zeroize(ptr noundef nonnull %5, i64 noundef 48) #14
  call void @llvm.lifetime.end.p0(i64 48, ptr nonnull %5) #14
  br label %61

58:                                               ; preds = %mbedtls_xor.exit.i
  %59 = getelementptr inbounds nuw i8, ptr %5, i64 32
  call void @llvm.memcpy.p0.p0.i64(ptr noundef nonnull align 8 dereferenceable(16) %0, ptr noundef nonnull align 16 dereferenceable(16) %59, i64 16, i1 false)
  call void @mbedtls_platform_zeroize(ptr noundef nonnull %5, i64 noundef 48) #14
  call void @llvm.lifetime.end.p0(i64 48, ptr nonnull %5) #14
  %60 = getelementptr inbounds nuw i8, ptr %0, i64 16
  store i32 1, ptr %60, align 8, !tbaa !3
  br label %61

61:                                               ; preds = %ctr_drbg_update_internal.exit.thread, %36, %58
  %.0 = phi i32 [ %37, %36 ], [ 0, %58 ], [ %.0.i.ph, %ctr_drbg_update_internal.exit.thread ]
  call void @mbedtls_platform_zeroize(ptr noundef nonnull %6, i64 noundef 384) #14
  br label %62

62:                                               ; preds = %23, %15, %10, %4, %61
  %.031 = phi i32 [ %.0, %61 ], [ -56, %4 ], [ -56, %10 ], [ -52, %15 ], [ -52, %23 ]
  call void @llvm.lifetime.end.p0(i64 384, ptr nonnull %6) #14
  ret i32 %.031
}